; Function Attrs: mustprogress nofree norecurse nosync nounwind willreturn memory(argmem: read) uwtable
define hidden zeroext i1 @Curl_multiplex_wanted(ptr noundef readonly %0) local_unnamed_addr #4 {
  %.not = icmp eq ptr %0, null
  br i1 %.not, label %7, label %2

2:                                                ; preds = %1
  %3 = getelementptr inbounds nuw i8, ptr %0, i64 649
  %4 = load i8, ptr %3, align 1
  %5 = and i8 %4, 1
  %6 = icmp ne i8 %5, 0
  br label %7

7:                                                ; preds = %2, %1
  %8 = phi i1 [ false, %1 ], [ %6, %2 ]
  ret i1 %8
}